target datalayout = "e-m:e-p270:32:32-p271:32:32-p272:64:64-i64:64-i128:128-f80:128-n8:16:32:64-S128"
target triple = "x86_64-pc-linux-gnu"

%struct.Vec_Int_t_ = type { i32, i32, ptr }
%struct.Abc_Obj_t_ = type { ptr, ptr, i32, i32, %struct.Vec_Int_t_, %struct.Vec_Int_t_, %union.anon, %union.anon.0 }
%union.anon = type { ptr }
%union.anon.0 = type { ptr }

; Function Attrs: inlinehint nounwind uwtable
define internal i32 @Abc_ObjFaninNum(ptr noundef %0) #2 {
  %2 = alloca ptr, align 8
  store ptr %0, ptr %2, align 8, !tbaa !29
  %3 = load ptr, ptr %2, align 8, !tbaa !29
  %4 = getelementptr inbounds nuw %struct.Abc_Obj_t_, ptr %3, i32 0, i32 4
  %5 = getelementptr inbounds nuw %struct.Vec_Int_t_, ptr %4, i32 0, i32 1
  %6 = load i32, ptr %5, align 4, !tbaa !96
  ret i32 %6
}

; Function Attrs: nounwind uwtable
define void @Abc_NodeMakeDist1Free(ptr noundef %0) #0 {
  %2 = alloca ptr, align 8
  %3 = alloca ptr, align 8
  %4 = alloca ptr, align 8
  %5 = alloca ptr, align 8
  %6 = alloca i32, align 4
  %7 = alloca i32, align 4
  %8 = alloca i32, align 4
  %9 = alloca i32, align 4
  store ptr %0, ptr %2, align 8, !tbaa !29
  call void @llvm.lifetime.start.p0(i64 8, ptr %3) #10
  %10 = load ptr, ptr %2, align 8, !tbaa !29
  %11 = getelementptr inbounds nuw %struct.Abc_Obj_t_, ptr %10, i32 0, i32 6
  %12 = load ptr, ptr %11, align 8, !tbaa !31
  store ptr %12, ptr %3, align 8, !tbaa !32
  call void @llvm.lifetime.start.p0(i64 8, ptr %4) #10
  call void @llvm.lifetime.start.p0(i64 8, ptr %5) #10
  call void @llvm.lifetime.start.p0(i64 4, ptr %6) #10
  call void @llvm.lifetime.start.p0(i64 4, ptr %7) #10
  %13 = load ptr, ptr %2, align 8, !tbaa !29
  %14 = call i32 @Abc_ObjFaninNum(ptr noundef %13)
  store i32 %14, ptr %7, align 4, !tbaa !12
  %15 = load ptr, ptr %3, align 8, !tbaa !32
  store ptr %15, ptr %4, align 8, !tbaa !32
  br label %16

16:                                               ; preds = %109, %1
  %17 = load ptr, ptr %4, align 8, !tbaa !32
  %18 = load i8, ptr %17, align 1, !tbaa !31
  %19 = icmp ne i8 %18, 0
  br i1 %19, label %20, label %115

20:                                               ; preds = %16
  %21 = load ptr, ptr %4, align 8, !tbaa !32
  %22 = load i32, ptr %7, align 4, !tbaa !12
  %23 = sext i32 %22 to i64
  %24 = getelementptr inbounds i8, ptr %21, i64 %23
  %25 = getelementptr inbounds i8, ptr %24, i64 3
  store ptr %25, ptr %5, align 8, !tbaa !32
  br label %26

26:                                               ; preds = %102, %20
  %27 = load ptr, ptr %5, align 8, !tbaa !32
  %28 = load i8, ptr %27, align 1, !tbaa !31
  %29 = icmp ne i8 %28, 0
  br i1 %29, label %30, label %108

30:                                               ; preds = %26
  call void @llvm.lifetime.start.p0(i64 4, ptr %8) #10
  store i32 0, ptr %8, align 4, !tbaa !12
  call void @llvm.lifetime.start.p0(i64 4, ptr %9) #10
  store i32 -1, ptr %9, align 4, !tbaa !12
  store i32 0, ptr %6, align 4, !tbaa !12
  br label %31

31:                                               ; preds = %54, %30
  %32 = load i32, ptr %6, align 4, !tbaa !12
  %33 = load i32, ptr %7, align 4, !tbaa !12
  %34 = icmp slt i32 %32, %33
  br i1 %34, label %35, label %57

35:                                               ; preds = %31
  %36 = load ptr, ptr %4, align 8, !tbaa !32
  %37 = load i32, ptr %6, align 4, !tbaa !12
  %38 = sext i32 %37 to i64
  %39 = getelementptr inbounds i8, ptr %36, i64 %38
  %40 = load i8, ptr %39, align 1, !tbaa !31
  %41 = sext i8 %40 to i32
  %42 = load ptr, ptr %5, align 8, !tbaa !32
  %43 = load i32, ptr %6, align 4, !tbaa !12
  %44 = sext i32 %43 to i64
  %45 = getelementptr inbounds i8, ptr %42, i64 %44
  %46 = load i8, ptr %45, align 1, !tbaa !31
  %47 = sext i8 %46 to i32
  %48 = icmp ne i32 %41, %47
  br i1 %48, label %49, label %53

49:                                               ; preds = %35
  %50 = load i32, ptr %8, align 4, !tbaa !12
  %51 = add nsw i32 %50, 1
  store i32 %51, ptr %8, align 4, !tbaa !12
  %52 = load i32, ptr %6, align 4, !tbaa !12
  store i32 %52, ptr %9, align 4, !tbaa !12
  br label %53

53:                                               ; preds = %49, %35
  br label %54

54:                                               ; preds = %53
  %55 = load i32, ptr %6, align 4, !tbaa !12
  %56 = add nsw i32 %55, 1
  store i32 %56, ptr %6, align 4, !tbaa !12
  br label %31, !llvm.loop !106

57:                                               ; preds = %31
  %58 = load i32, ptr %8, align 4, !tbaa !12
  %59 = icmp eq i32 %58, 1
  br i1 %59, label %60, label %101

60:                                               ; preds = %57
  %61 = load ptr, ptr %4, align 8, !tbaa !32
  %62 = load i32, ptr %9, align 4, !tbaa !12
  %63 = sext i32 %62 to i64
  %64 = getelementptr inbounds i8, ptr %61, i64 %63
  %65 = load i8, ptr %64, align 1, !tbaa !31
  %66 = sext i8 %65 to i32
  %67 = icmp eq i32 %66, 48
  br i1 %67, label %68, label %76

68:                                               ; preds = %60
  %69 = load ptr, ptr %5, align 8, !tbaa !32
  %70 = load i32, ptr %9, align 4, !tbaa !12
  %71 = sext i32 %70 to i64
  %72 = getelementptr inbounds i8, ptr %69, i64 %71
  %73 = load i8, ptr %72, align 1, !tbaa !31
  %74 = sext i8 %73 to i32
  %75 = icmp eq i32 %74, 49
  br i1 %75, label %92, label %76

76:                                               ; preds = %68, %60
  %77 = load ptr, ptr %4, align 8, !tbaa !32
  %78 = load i32, ptr %9, align 4, !tbaa !12
  %79 = sext i32 %78 to i64
  %80 = getelementptr inbounds i8, ptr %77, i64 %79
  %81 = load i8, ptr %80, align 1, !tbaa !31
  %82 = sext i8 %81 to i32
  %83 = icmp eq i32 %82, 49
  br i1 %83, label %84, label %101

84:                                               ; preds = %76
  %85 = load ptr, ptr %5, align 8, !tbaa !32
  %86 = load i32, ptr %9, align 4, !tbaa !12
  %87 = sext i32 %86 to i64
  %88 = getelementptr inbounds i8, ptr %85, i64 %87
  %89 = load i8, ptr %88, align 1, !tbaa !31
  %90 = sext i8 %89 to i32
  %91 = icmp eq i32 %90, 48
  br i1 %91, label %92, label %101

92:                                               ; preds = %84, %68
  %93 = load ptr, ptr %5, align 8, !tbaa !32
  %94 = load i32, ptr %9, align 4, !tbaa !12
  %95 = sext i32 %94 to i64
  %96 = getelementptr inbounds i8, ptr %93, i64 %95
  store i8 45, ptr %96, align 1, !tbaa !31
  %97 = load ptr, ptr %4, align 8, !tbaa !32
  %98 = load i32, ptr %9, align 4, !tbaa !12
  %99 = sext i32 %98 to i64
  %100 = getelementptr inbounds i8, ptr %97, i64 %99
  store i8 45, ptr %100, align 1, !tbaa !31
  br label %101

101:                                              ; preds = %92, %84, %76, %57
  call void @llvm.lifetime.end.p0(i64 4, ptr %9) #10
  call void @llvm.lifetime.end.p0(i64 4, ptr %8) #10
  br label %102

102:                                              ; preds = %101
  %103 = load i32, ptr %7, align 4, !tbaa !12
  %104 = add nsw i32 %103, 3
  %105 = load ptr, ptr %5, align 8, !tbaa !32
  %106 = sext i32 %104 to i64
  %107 = getelementptr inbounds i8, ptr %105, i64 %106
  store ptr %107, ptr %5, align 8, !tbaa !32
  br label %26, !llvm.loop !107

108:                                              ; preds = %26
  br label %109

109:                                              ; preds = %108
  %110 = load i32, ptr %7, align 4, !tbaa !12
  %111 = add nsw i32 %110, 3
  %112 = load ptr, ptr %4, align 8, !tbaa !32
  %113 = sext i32 %111 to i64
  %114 = getelementptr inbounds i8, ptr %112, i64 %113
  store ptr %114, ptr %4, align 8, !tbaa !32
  br label %16, !llvm.loop !108

115:                                              ; preds = %16
  call void @llvm.lifetime.end.p0(i64 4, ptr %7) #10
  call void @llvm.lifetime.end.p0(i64 4, ptr %6) #10
  call void @llvm.lifetime.end.p0(i64 8, ptr %5) #10
  call void @llvm.lifetime.end.p0(i64 8, ptr %4) #10
  call void @llvm.lifetime.end.p0(i64 8, ptr %3) #10
  ret void
}

; Function Attrs: nounwind uwtable
define i32 @Abc_NodeMakeLegit(ptr noundef %0) #0 {
  %2 = alloca ptr, align 8
  %3 = alloca i32, align 4
  %4 = alloca i32, align 4
  store ptr %0, ptr %2, align 8, !tbaa !29
  call void @llvm.lifetime.start.p0(i64 4, ptr %3) #10
  call void @llvm.lifetime.start.p0(i64 4, ptr %4) #10
  store i32 1, ptr %4, align 4, !tbaa !12
  store i32 0, ptr %3, align 4, !tbaa !12
  br label %5

5:                                                ; preds = %12, %1
  %6 = load i32, ptr %4, align 4, !tbaa !12
  %7 = icmp ne i32 %6, 0
  br i1 %7, label %8, label %15

8:                                                ; preds = %5
  %9 = load ptr, ptr %2, align 8, !tbaa !29
  call void @Abc_NodeMakeDist1Free(ptr noundef %9)
  %10 = load ptr, ptr %2, align 8, !tbaa !29
  %11 = call i32 @Abc_NodeMakeSCCFree(ptr noundef %10)
  store i32 %11, ptr %4, align 4, !tbaa !12
  br label %12

12:                                               ; preds = %8
  %13 = load i32, ptr %3, align 4, !tbaa !12
  %14 = add nsw i32 %13, 1
  store i32 %14, ptr %3, align 4, !tbaa !12
  br label %5, !llvm.loop !112

15:                                               ; preds = %5
  %16 = load i32, ptr %3, align 4, !tbaa !12
  %17 = icmp sgt i32 %16, 1
  %18 = zext i1 %17 to i32
  call void @llvm.lifetime.end.p0(i64 4, ptr %4) #10
  call void @llvm.lifetime.end.p0(i64 4, ptr %3) #10
  ret i32 %18
}