; Function Attrs: nofree norecurse nosync nounwind memory(readwrite, inaccessiblemem: none) uwtable
define range(i32 0, 2) i32 @Abc_NodeMakeLegit(ptr noundef readonly captures(none) %0) local_unnamed_addr #7 {
  %2 = getelementptr inbounds nuw i8, ptr %0, i64 56
  %3 = getelementptr i8, ptr %0, i64 28
  br label %4

4:                                                ; preds = %1, %Abc_NodeMakeDist1Free.exit
  %.045 = phi i32 [ 0, %1 ], [ %37, %Abc_NodeMakeDist1Free.exit ]
  %5 = load ptr, ptr %2, align 8, !tbaa !35
  %.val.i = load i32, ptr %3, align 4, !tbaa !78
  %.val.fr.i = freeze i32 %.val.i
  %6 = load i8, ptr %5, align 1, !tbaa !35
  %.not49.i = icmp eq i8 %6, 0
  br i1 %.not49.i, label %Abc_NodeMakeDist1Free.exit, label %.lr.ph.i

.lr.ph.i:                                         ; preds = %4
  %7 = sext i32 %.val.fr.i to i64
  %8 = icmp sgt i32 %.val.fr.i, 0
  br i1 %8, label %.lr.ph.split.us.preheader.i, label %Abc_NodeMakeDist1Free.exit

.lr.ph.split.us.preheader.i:                      ; preds = %.lr.ph.i
  %wide.trip.count.i = zext nneg i32 %.val.fr.i to i64
  br label %.lr.ph.split.us.i

.lr.ph.split.us.i:                                ; preds = %._crit_edge48.split.us.us.i, %.lr.ph.split.us.preheader.i
  %.03450.us.i = phi ptr [ %.03645.us.i, %._crit_edge48.split.us.us.i ], [ %5, %.lr.ph.split.us.preheader.i ]
  %9 = getelementptr i8, ptr %.03450.us.i, i64 %7
  %.03645.us.i = getelementptr i8, ptr %9, i64 3
  %10 = load i8, ptr %.03645.us.i, align 1, !tbaa !35
  %.not3846.us.i = icmp eq i8 %10, 0
  br i1 %.not3846.us.i, label %Abc_NodeMakeDist1Free.exit, label %.preheader.us.us.i

._crit_edge48.split.us.us.i:                      ; preds = %.thread.us.us.i
  %.pre.i = load i8, ptr %.03645.us.i, align 1, !tbaa !35
  %11 = icmp eq i8 %.pre.i, 0
  br i1 %11, label %Abc_NodeMakeDist1Free.exit, label %.lr.ph.split.us.i, !llvm.loop !92

.preheader.us.us.i:                               ; preds = %.lr.ph.split.us.i, %.thread.us.us.i
  %.03647.us.us.i = phi ptr [ %.036.us.us.i, %.thread.us.us.i ], [ %.03645.us.i, %.lr.ph.split.us.i ]
  br label %28

12:                                               ; preds = %._crit_edge.us.us.i
  %13 = sext i32 %spec.select40.us.us.i to i64
  %14 = getelementptr inbounds i8, ptr %.03450.us.i, i64 %13
  %15 = load i8, ptr %14, align 1, !tbaa !35
  switch i8 %15, label %.thread.us.us.i [
    i8 48, label %20
    i8 49, label %16
  ]

16:                                               ; preds = %12
  %17 = getelementptr inbounds i8, ptr %.03647.us.us.i, i64 %13
  %18 = load i8, ptr %17, align 1, !tbaa !35
  %19 = icmp eq i8 %18, 48
  br i1 %19, label %24, label %.thread.us.us.i

20:                                               ; preds = %12
  %21 = getelementptr inbounds i8, ptr %.03647.us.us.i, i64 %13
  %22 = load i8, ptr %21, align 1, !tbaa !35
  %23 = icmp eq i8 %22, 49
  br i1 %23, label %24, label %.thread.us.us.i

24:                                               ; preds = %20, %16
  %25 = getelementptr inbounds i8, ptr %.03647.us.us.i, i64 %13
  store i8 45, ptr %25, align 1, !tbaa !35
  store i8 45, ptr %14, align 1, !tbaa !35
  br label %.thread.us.us.i

.thread.us.us.i:                                  ; preds = %._crit_edge.us.us.i, %24, %20, %16, %12
  %26 = getelementptr i8, ptr %.03647.us.us.i, i64 %7
  %.036.us.us.i = getelementptr i8, ptr %26, i64 3
  %27 = load i8, ptr %.036.us.us.i, align 1, !tbaa !35
  %.not38.us.us.i = icmp eq i8 %27, 0
  br i1 %.not38.us.us.i, label %._crit_edge48.split.us.us.i, label %.preheader.us.us.i, !llvm.loop !93

28:                                               ; preds = %28, %.preheader.us.us.i
  %indvars.iv.i = phi i64 [ %indvars.iv.next.i, %28 ], [ 0, %.preheader.us.us.i ]
  %.043.us.us.i = phi i32 [ %spec.select40.us.us.i, %28 ], [ -1, %.preheader.us.us.i ]
  %.03242.us.us.i = phi i32 [ %spec.select.us.us.i, %28 ], [ 0, %.preheader.us.us.i ]
  %29 = getelementptr inbounds nuw i8, ptr %.03450.us.i, i64 %indvars.iv.i
  %30 = load i8, ptr %29, align 1, !tbaa !35
  %31 = getelementptr inbounds nuw i8, ptr %.03647.us.us.i, i64 %indvars.iv.i
  %32 = load i8, ptr %31, align 1, !tbaa !35
  %.not39.us.us.i = icmp ne i8 %30, %32
  %33 = zext i1 %.not39.us.us.i to i32
  %spec.select.us.us.i = add nuw nsw i32 %.03242.us.us.i, %33
  %34 = trunc nuw nsw i64 %indvars.iv.i to i32
  %spec.select40.us.us.i = select i1 %.not39.us.us.i, i32 %34, i32 %.043.us.us.i
  %indvars.iv.next.i = add nuw nsw i64 %indvars.iv.i, 1
  %exitcond.not.i = icmp eq i64 %indvars.iv.next.i, %wide.trip.count.i
  br i1 %exitcond.not.i, label %._crit_edge.us.us.i, label %28, !llvm.loop !94

._crit_edge.us.us.i:                              ; preds = %28
  %35 = icmp eq i32 %spec.select.us.us.i, 1
  br i1 %35, label %12, label %.thread.us.us.i

Abc_NodeMakeDist1Free.exit:                       ; preds = %.lr.ph.split.us.i, %._crit_edge48.split.us.us.i, %4, %.lr.ph.i
  %36 = tail call i32 @Abc_NodeMakeSCCFree(ptr noundef %0)
  %37 = add nuw nsw i32 %.045, 1
  %.not = icmp eq i32 %36, 0
  br i1 %.not, label %38, label %4, !llvm.loop !95

38:                                               ; preds = %Abc_NodeMakeDist1Free.exit
  %39 = icmp ne i32 %.045, 0
  %40 = zext i1 %39 to i32
  ret i32 %40
}